; Function Attrs: mustprogress null_pointer_is_valid sspstrong uwtable
define void @_ZNK25DissectorTablesProxyModel10headerDataEiN2Qt11OrientationEi(ptr dead_on_unwind noalias writable sret(%class.QVariant) align 8 %0, ptr noundef align 8 dereferenceable_or_null(88) %1, i32 noundef %2, i32 noundef %3, i32 noundef %4) unnamed_addr #5 align 2 {
  %6 = icmp eq i32 %3, 1
  %7 = icmp eq i32 %4, 0
  %or.cond = and i1 %6, %7
  br i1 %or.cond, label %8, label %13

8:                                                ; preds = %5
  switch i32 %2, label %13 [
    i32 0, label %9
    i32 1, label %11
  ]

9:                                                ; preds = %8
  %10 = getelementptr inbounds nuw i8, ptr %1, i64 16
  tail call void @_ZN8QVariantC1ERK7QString(ptr noundef align 8 dereferenceable_or_null(32) %0, ptr noundef nonnull align 8 dereferenceable(24) %10)
  br label %15

11:                                               ; preds = %8
  %12 = getelementptr inbounds nuw i8, ptr %1, i64 40
  tail call void @_ZN8QVariantC1ERK7QString(ptr noundef align 8 dereferenceable_or_null(32) %0, ptr noundef nonnull align 8 dereferenceable(24) %12)
  br label %15

13:                                               ; preds = %8, %5
  tail call void @llvm.memset.p0.i64(ptr noundef align 8 dereferenceable(24) dereferenceable_or_null(32) %0, i8 0, i64 24, i1 false)
  %14 = getelementptr inbounds nuw i8, ptr %0, i64 24
  store i64 2, ptr %14, align 8
  br label %15

15:                                               ; preds = %13, %11, %9
  ret void
}